(lp0
F3.0128580497501827
aF3.109849144065636
aF3.1527375463219487
aF3.3802934451950315
aF3.3529008821762467
aF3.110035911439362
aF3.35314296638308
aF3.123273744590521
aF3.2085449925337266
aF3.0728382128462037
aF3.414119809270131
aF3.346782738134231
aF2.964656738531125
aF2.7671487621489645
aF3.272818907390769
aF3.1253929910756115
aF3.480371245806706
aF3.624690112243311
aF3.316458955030332
aF3.675398998121222
aF3.6164666243669608
aF3.591558328712366
aF3.5550449368804538
aF3.187893228346809
aF3.100479926654087
aF3.6711738518665817
aF3.0716832913904812
aF3.0537216643076093
aF3.467083997532437
aF2.7369172090520486
aF3.4719782726666337
aF3.160321442274529
aF3.015269733056088
aF3.387933326711876
aF2.646720519705768
aF3.0315380366502636
aF3.2230479287123983
aF3.6129175311765396
aF3.4040086588952585
aF2.9495221615314007
aF3.1249973591891202
aF3.595054261731408
aF3.0827879915069114
aF3.558413838022618
aF2.4686805563046486
aF3.177515413422484
aF3.6540484435424148
aF3.272003912935839
aF3.4457429884425834
aF2.7905804375446204
aF2.7362787630635284
aF3.5775885282794464
aF2.746683063634002
aF3.2082937533164064
aF3.764477276751502
aF3.566561797029079
aF3.4060160721757597
aF3.729342898482713
aF3.5776723858906863
aF3.903020331613901
aF3.00097889352282
aF3.633510825913548
aF3.548547124455118
aF2.9743686770950086
aF3.297221045413098
aF3.3854324891042618
aF3.044630616319169
a.