(lp0
F8.805359508045665
aF8.788208883282518
aF8.774722623788021
aF8.77088904009444
aF8.734079807542997
aF8.702330841021993
aF8.695831522307367
aF8.50458602272243
aF8.622044871049999
aF8.484985956218905
aF8.423627040766121
aF8.604640663051217
aF8.581964231646026
aF8.569252726432236
aF8.497050155475806
aF8.402156713317268
aF8.380434143779166
aF8.422377825936119
aF8.333410807157819
aF8.259444865481587
aF8.155479049918188
aF8.175021156421264
aF8.21118894412606
aF7.966864652134674
aF7.890291536876132
aF7.734373149186988
aF7.509091656848213
aF7.643685207601614
aF7.413020074143034
aF7.44945897959411
aF7.486052595461567
aF7.422755230716925
aF7.082519428166084
aF7.311225511217616
aF6.293639507382248
aF5.849038291511485
aF6.534063889199915
aF4.602269907932656
aF5.080021071174846
aF5.569974265379064
aF6.364541298799955
aF6.051280790833499
aF6.763028561006391
aF5.435148065152713
aF5.325993052625618
aF5.386035615972964
aF4.901409201879349
aF6.426735878922273
aF6.3634320107681805
aF6.272549276300214
aF5.840582113101953
aF6.365076096177496
aF5.511952771978166
aF4.9498385064740775
aF5.136401726410913
aF5.8900878631982625
aF5.0017069149017335
aF4.1192527463618855
aF5.445154406628495
aF4.137553986127638
aF4.217648723522316
aF5.177258871810315
aF4.0520443746132955
aF5.008963190159331
aF5.161941512400354
aF3.3223275490488327
aF2.941150801824719
aF2.835229087547641
aF5.321766403192297
aF4.595527520749232
aF4.933906197086345
aF5.548763133554073
aF4.024686333448841
aF4.5365254192334765
aF4.301002759584141
aF4.3537135356704875
aF4.974659990077392
aF3.9815716009132607
aF5.188492521237806
aF4.72805512442793
aF5.035220729148912
aF3.0912015986286425
aF4.5753854422752225
aF4.318150320060005
aF4.675567146893907
aF5.248741939043758
aF3.541560351473875
aF3.9798719551821393
aF4.374024860805301
aF4.8447946961757555
aF3.5467896439508713
aF3.8375916615895624
aF4.462454640193448
aF4.293428359903654
aF3.409128945516103
aF5.086990515278085
aF3.8087394872038365
aF2.6532486703082343
aF3.290280266964074
aF4.195087618258694
aF4.491544726879744
aF4.580692678848509
aF5.157068504119614
aF3.9128241292953327
aF4.056701088444554
aF5.2099376112591
aF4.70345143832249
aF4.127105724382564
aF4.522460144505357
aF3.8844273327494543
aF4.649806172404405
aF4.447272768557019
aF4.510079734924968
aF5.141230815569055
aF3.380348464660755
aF4.972187822295629
aF4.744113941442208
aF4.563621974138788
aF3.573763977877669
aF4.375168909477176
aF4.669039966031457
aF4.827639981465819
aF5.690805260137025
aF4.208405869933518
aF4.769353703170263
aF4.574478442423496
aF4.279883047688798
aF4.029429587864409
aF4.390881264561677
aF4.39611440052162
aF5.26796860576916
aF3.5797758505547415
aF3.8774962460577904
aF3.7729670883855055
aF2.043942853951113
aF3.831281380114622
aF3.7200093425658936
aF4.629593206243328
aF3.698793551019776
aF4.461082718992407
aF5.083410267160545
aF4.723441197320004
aF5.6838402520492135
aF3.891701292754049
aF4.257142974690985
aF4.164803733604122
aF3.4797893668597837
aF4.966607889811198
aF4.67970968172347
aF4.79125854669182
aF4.502351035158275
aF4.2185022496639295
aF4.730438918102345
aF4.122348501758035
aF2.9884180392018576
aF3.7479966832546667
aF4.87830788822388
aF3.5501080536966008
aF2.8806062157187475
aF5.040991690963057
aF4.8664495757513695
aF4.555530238107744
aF4.287405520540068
aF3.4695201830806375
aF3.573560418258611
aF4.0941584581943395
aF3.946504729339002
aF4.4535522443306546
aF4.996386741797616
aF4.029378512522511
aF4.662015479220471
aF3.741959282351755
aF4.694396364864334
aF4.469239286482354
aF4.1238379077913
aF4.426191855302621
aF4.016865995041482
aF3.954445377981846
aF4.648654328119651
aF4.68032688083874
aF4.208862645424339
aF4.84787209977199
aF4.31114760905354
aF3.8233327911374815
aF3.454577749889372
aF3.9792395702574637
aF4.339028599587081
aF4.402979905244532
aF4.06798463568199
aF3.6647183714285942
aF4.713232593873556
aF4.155725456582106
aF4.256660537468343
aF3.593554584649792
aF4.594180917723608
aF4.532398178979442
aF3.81633007411578
aF4.20368063798558
aF4.0828900936322325
aF3.976461543266052
aF4.931500686736602
aF3.2970066436964727
aF3.483662726316937
aF4.461741235337784
aF4.502971767298806
aF3.772125828380985
aF3.1145292274136738
aF3.5083020616344696
aF4.208540824352802
aF4.0047408155952136
aF3.4748140315760194
aF3.4322634051193077
aF4.72853986710569
aF4.460180042569479
aF5.201052143741251
aF3.4089944695142917
aF3.787207623024333
aF5.208451273608306
aF4.06703016497316
aF3.8753836239928354
aF4.14127228277348
aF4.884023049987978
aF4.3980742479699115
aF4.564914371681541
aF4.262876367130096
aF4.648815925732082
aF4.836772288104777
aF4.560071360489281
aF4.178787147209258
aF4.292517854301854
aF4.05339564068965
aF3.196436604824695
aF5.009562868657545
aF3.3296312837911985
aF4.837185866914091
aF3.498491978065752
aF4.415678767242923
aF4.628596961647873
aF3.8243813154303807
aF3.6099462683264307
aF4.48258482331653
aF4.1799204346168795
aF4.392056376006176
aF2.5316794315520523
aF5.235974422527453
aF3.189575639687881
aF3.747419715392713
aF3.4558580381896626
aF4.706413710008803
aF2.6513128405196493
aF4.0087695162053025
aF4.900290086681662
aF4.5891148404157285
aF4.676379572277446
aF4.392551847302714
aF4.623681686252601
aF4.288921721888638
aF5.052272715007558
aF3.8589171791309793
aF3.543546996576466
aF4.228307669583596
aF4.444304070308921
aF3.4264617912422515
aF3.748168393749947
aF4.547238213319181
aF3.781663206253217
aF3.472102492638706
aF3.594853628352304
aF4.070578824318927
aF3.6773331451576623
aF4.7848941651337
aF4.0563460572190815
aF3.774229825874957
aF3.8271791493641887
aF4.07884664986806
aF4.125136740586286
aF5.8040042893974215
aF4.146034147585397
aF3.97269850318749
aF4.304955487647462
aF3.760631011899858
aF4.081503514689258
aF4.608250816424459
aF3.5879723057322046
aF4.7244839934074525
aF2.913880457899315
aF3.568326346566363
aF4.880689575455625
aF3.751239759471057
aF3.716944926988294
aF4.090807656570153
aF4.006620173843107
aF3.992027425749761
aF3.9272716165433144
aF4.431966857073787
aF4.562386935053371
aF4.066902632004835
aF4.439734561204355
aF4.18159760566307
aF4.367955212499394
aF4.6101472329185125
aF3.5365451165813795
aF5.384800690179503
aF5.096736461934205
aF3.538924502761664
aF3.785351715717643
aF3.524303874959771
aF3.619109788364006
aF3.0663725163556186
aF2.864943982495355
aF4.23131313316675
aF4.00433080084421
aF3.616823810213602
aF4.737369487840557
aF4.7718949870840515
aF4.0196112460202995
aF3.312867575518274
aF3.744395782788575
aF4.086660554275174
aF4.016236411543581
aF3.6161086029410976
aF3.9481636253107135
aF4.697854947399847
aF3.6074334204616156
aF5.03089661632723
aF5.596697098050798
aF5.478984544398502
aF4.668099665151008
aF3.368628681466997
aF3.686815238211904
aF3.7148791230085343
aF3.774954564862226
aF3.6190302666933896
aF3.8754040505076084
aF4.312542587157397
aF3.1442891564755904
aF4.141329332013151
aF4.404778857015651
aF3.4331810675964243
aF3.506968442010673
aF4.417541695923925
aF3.9563431129850968
aF4.564059679686351
aF4.639376393168751
aF3.9404805585147527
aF3.7809099334445357
aF4.583715866462194
aF4.859518137699043
aF3.609943420529375
aF4.479380668569394
aF4.349049865638349
aF4.759770689127375
aF4.254850005697079
aF4.236184367159501
aF4.277871802915729
aF4.467709444207126
aF4.05561456493052
aF4.234820111527713
aF4.629037955178172
aF4.282008284449061
aF4.579036346671238
aF4.473667024070099
aF4.78792053722939
aF4.804293717505439
aF4.828024209722623
aF3.9049734810097627
aF4.830483602541793
aF4.0819590608823555
aF4.92747369553715
aF4.3142687925064465
aF3.56035011821323
aF3.931068394149622
aF4.7031732052642035
aF4.388073942154926
aF2.5039221009077344
aF3.662503163299418
aF4.934870258626183
aF4.665200029337813
aF2.972369371262712
aF3.453125287068191
aF3.7239454243694516
aF4.979398473341192
aF4.5657888431635865
aF3.9181149099970214
aF4.0442855092638155
aF4.690344511906819
aF4.342360594865996
aF4.294739470945781
aF4.147734997155721
aF4.261298258139672
aF3.7926989547758283
aF4.6843591666958595
aF4.045333763001457
aF4.833681983812255
aF4.860369006216307
aF4.573570543344506
aF4.153553013854111
aF4.301665672204367
aF3.9911216811528285
aF4.37001391581726
aF4.03459351592508
aF4.464332106972091
aF3.697381129110494
aF4.573286442541326
aF4.916758827457261
aF5.120596292886816
aF5.216956642324275
aF4.676856012412949
aF4.278616353549139
aF4.660319335895322
aF4.934085683777238
aF4.391615263077995
aF4.825177141081443
aF4.022190339582164
aF4.055275511858696
aF4.83267451538453
aF4.040444903239947
aF4.1851308089373855
aF5.123300434535556
aF3.8495031890528564
aF4.817482849376846
aF4.45929060673845
aF4.622453392592034
aF4.805444469107568
aF3.5768604958036447
aF4.285060791801142
aF3.214777240642418
aF4.927068245954333
aF5.000253068502598
aF5.688155176323909
aF4.708767450405206
aF4.04694252141851
aF4.504405538600729
aF3.936580877683155
aF4.295075099489773
aF4.627699826893053
aF4.764678090673505
aF4.556058041058564
aF4.141242466993298
aF4.139553500390156
aF3.5383793946642674
aF3.461168784948556
aF4.5106523509706715
aF4.706440218616042
aF3.8627432335876315
aF4.0807617745830065
aF3.896478939073993
aF4.130982518830552
aF4.1515320819028405
aF4.802784995970269
aF4.8149842025760226
aF4.89035043223336
aF4.663014976528141
aF3.9020436691939993
aF3.4720264182549654
aF4.416931289724336
aF4.683522827495489
aF5.230038755414542
aF4.122858667445579
aF4.682994674501946
aF5.099262228017558
aF4.9024438531718015
aF4.305333484036899
aF4.193442634272779
aF4.10367462372771
aF4.5614113621808965
aF4.775984270915314
aF2.886427790681442
aF4.445449302933433
aF4.979790717247341
aF3.9852817826100226
aF4.006956255641601
aF5.078154812901987
aF3.9855519603882654
aF4.409920290587819
aF4.653272557205733
aF4.517147180027939
aF4.539189949854914
aF4.486735047680481
aF4.3523776121643065
aF4.6984072959480105
aF3.2662185734056544
aF4.573777037200531
aF4.543620595813658
aF4.568150653086034
aF4.5075526576186675
aF4.33758108400973
aF3.9484836131087575
aF4.594231668139382
aF3.6979644863376473
aF4.3865414991674125
aF4.495328497783445
aF4.583090762850684
aF4.4974860968396
aF4.7695944745549355
aF4.419547239031111
aF2.6205598385359496
aF3.9697126796956645
aF4.265878022129792
aF4.036083930510104
aF4.444796119268409
aF3.9786812894695034
aF5.0603809833318
aF3.9496659983637237
aF4.29819474819379
aF4.884518779370152
aF4.072933402603827
aF3.441005755764553
aF3.9672492209557007
aF4.34546071737289
aF4.038712959970525
aF4.660452211677873
aF4.568272454516121
aF3.7778685030553363
aF5.3542341275873415
aF4.314763581179043
aF4.35281954616604
aF3.953975513282237
aF4.794226609417126
aF5.10685518553551
aF4.2507859818274225
aF4.685653989165301
aF3.859275388397125
aF4.190417020586121
aF3.544570935252822
aF4.812034964718806
aF4.2368090540762315
aF3.900853422944717
aF4.007503180682745
aF4.237665948334273
aF4.491356763919844
aF4.184794675068455
aF4.138255839747515
aF4.453936925240537
aF4.014371260016469
aF3.9642077769050132
aF4.416951266710178
aF4.411504316664499
aF3.212869810517385
aF4.145890303980984
aF4.213805132901672
aF4.505905255630236
aF4.149817120543444
aF4.369175574802628
aF3.5544179920357686
aF4.511209690851695
aF3.893347086086888
aF4.941525278760675
aF3.941026791252495
aF4.5006905902110015
aF4.540179351218494
aF3.8010692824030583
aF4.313349561308002
aF3.64491001130599
aF4.210186837294815
aF4.070813151746014
aF4.477700869579808
aF4.631864620698627
aF5.027454152067297
aF4.569599384359906
aF4.221933132756041
aF5.213271398027849
aF3.431754078306805
aF4.39825610387893
aF4.660493914019161
aF4.857525783025109
aF4.671620932822619
aF4.380825985754742
aF3.851017352298199
aF3.62992874784901
aF3.922036126369823
aF4.339846300225014
aF3.235988533542178
aF4.74074991633964
aF4.1603614955247465
aF4.063078198738397
aF4.015905888674601
aF4.079133207039128
aF4.494259290564985
aF4.350557217724964
aF4.27645756011792
aF4.750767076331157
aF4.947972400892667
aF4.830193923499044
aF4.092379069113052
aF3.9344224605854956
aF4.805244532798377
aF3.5793326719665814
aF4.232267192923319
aF4.418455902869609
aF5.160211106353576
aF4.284273340033875
aF4.245607450416972
aF4.711597276167437
aF4.114832686002988
aF4.585020415944592
aF3.3533306781718197
aF4.224008502382221
aF4.369952398082739
aF4.000644214478568
aF4.359515284634141
aF4.136572317641397
aF4.6757774593531645
aF3.8070900423941616
aF4.823620530544607
aF3.8826713428055326
aF4.2485005845814126
aF4.827322002702612
aF4.3547353674548654
aF3.8546735336050935
aF4.961390240501944
aF4.169943314931988
aF3.416871729652531
aF4.790650048120537
aF4.588103430476249
aF4.908685210215581
aF3.8924442010669322
aF4.041778446122133
aF4.933777659703298
aF4.5290371627125
aF4.325221135402817
aF4.496599515161587
aF4.3727005012079605
aF4.308735222998477
aF3.8497743004805747
aF4.198573689660608
aF4.4234023723691855
aF5.041696237653618
aF4.540791127002514
aF3.766800595577574
aF3.9389279937125155
aF4.362531109259097
aF3.503836286944545
aF3.6412192512688564
aF4.211529107030934
aF5.111684170177545
aF4.542405988905165
aF3.8773248691874627
aF4.376512488063864
aF4.3769216618889235
aF4.4735199758697375
aF4.639884135692165
aF4.192084155780337
aF4.382791673583214
aF4.510190359453226
aF4.676202948592899
aF4.676268740596934
aF4.396057494298974
aF4.003464841718934
aF4.42755298704597
aF4.411145445345579
aF4.3234452068885165
aF4.462135851021969
aF4.655167096359561
aF4.858896606547782
aF4.9810653088576675
aF4.024893070981168
aF4.46502085915017
aF3.699041117116323
aF4.471577412335085
aF4.457330893660931
aF4.926228845203973
aF3.8939305666547406
aF4.464377269583448
aF4.4026876343812935
aF3.6032828071004026
aF3.4785729664252045
aF4.637970148763506
aF4.263361401544503
aF4.47429631392161
aF3.9030277724193745
aF3.0735222125859996
aF4.044189951521718
aF3.9430860893582653
aF4.651092253602597
aF4.365678443533945
aF4.775423457564571
aF3.73744634565882
aF4.528982698552101
aF4.045624286797502
aF4.605167689301036
aF3.6637904038379476
aF4.3671304327821225
aF4.89264463167921
aF3.6951919524929293
aF4.835826391118021
aF4.3112159516195385
aF4.268567673428292
aF4.275445321653567
aF3.7891137617123305
aF4.687253114767749
aF4.120201772914495
aF3.6313740490199797
aF4.437866820985157
aF3.9720565900210305
aF4.233900230288769
aF4.291546346396135
aF4.534097403753372
aF4.242407880370688
aF4.825629432326127
aF4.029871880400415
aF3.8716140391136014
aF3.809668163650872
aF3.8206059154363787
aF3.7011018468487746
aF4.053651647539577
aF3.6747986495986487
aF4.5671560808069565
aF3.69502557190453
aF4.219867747232713
aF4.159511471473513
aF4.436552753425058
aF3.7803261106522825
aF4.2766680504159895
aF3.864878354173245
aF2.529979869134414
aF4.3767616613689615
aF3.4198338408443165
aF4.059586831597707
aF3.989385147851398
aF4.68060109486008
aF4.446152235624224
aF4.204365193158056
aF4.586105812664413
aF4.739326506613795
aF4.6493140694462305
aF4.168247833467067
aF5.277844039927416
aF3.8306553466756563
aF3.3534224126692913
aF4.399338107103688
aF4.544497127117995
aF4.747366462284891
aF5.014728807177273
aF3.908200116468559
aF4.5491417342405995
aF4.526888905723713
aF4.155105999695885
aF4.566090308724759
aF4.093868044614302
aF4.1696873959810485
aF4.254181524627229
aF4.394042571858604
aF4.324341473233781
aF4.094955613696959
aF3.9788457276938964
aF4.464106457015338
aF4.515531829451575
aF3.989066626527807
aF4.153773412342266
aF4.296376938709264
aF4.712964919604724
aF4.29358007253852
aF4.314744740523301
aF4.949252830381623
aF4.391142499488128
aF4.395554724345131
aF4.755071671180817
aF4.407577408475026
aF4.018519102570214
aF3.9154229819457362
aF4.4439456663991175
aF4.136227818691369
aF4.405410332660226
aF4.298640410159935
aF3.727324285458445
aF3.8202207854850294
aF3.999680776745703
aF4.658589920971501
aF4.65816138710243
aF3.748105580842599
aF3.5950418570635976
aF4.472762837359997
aF3.7416189982994306
aF3.885293368585836
aF3.674463182263777
aF4.250712702399806
aF4.032200685682705
aF4.936822704891103
aF4.365547821486653
aF4.857302189603376
aF4.655000455410577
aF4.302085999711307
aF4.591744563156393
aF4.520025070735387
aF4.095064281882575
aF4.123563379626377
aF3.7770340213342672
aF3.9357604374562585
aF4.270499619343113
aF3.542771917351774
aF3.3211640402221767
aF4.399809453678413
aF4.450213928224795
aF4.6229465654161235
aF4.596527235924084
aF4.544938540040401
aF3.942806590299707
aF3.8326525467190122
aF4.374189076250404
aF4.632530339184144
aF4.575715736240491
aF3.590758030049373
aF4.736934364853172
aF4.200318407955901
aF4.05649512866716
aF4.841123236725665
aF3.999726728171037
aF4.653362010370749
aF4.7646670420746995
aF4.780388911698172
aF4.806968989366188
aF4.579226001471119
aF4.87950467588264
aF4.575226529164316
aF3.9474534159219323
aF3.9154942856688137
aF3.66573915476319
aF3.9586916663747522
aF3.9145978982491827
aF4.26637217720811
aF4.37023278229709
aF4.332690578025231
aF4.440530168663742
aF4.17032478784406
aF3.976251177549851
aF4.342353537897486
aF4.747312454746159
aF4.830236329549152
aF4.468357911152963
aF4.462353237670258
aF4.563450828076097
aF4.3110583631126165
aF4.815245662424671
aF3.8261759912193596
aF4.302675870633593
aF4.929712328231975
aF4.844936988707173
aF4.062964531198564
aF4.13450913245191
aF4.072469833196499
aF4.287843754863088
aF4.2837530867921485
aF4.397243452253796
aF4.780281653024234
aF4.672965050106745
aF4.015490202297043
aF4.1701636572917025
aF2.799013129026565
aF3.8773345236398007
aF4.198740874507034
aF3.9073939336200665
aF4.200094996628398
aF4.136139408621948
aF3.771347610534183
aF4.926506714412915
aF4.2016279646575745
aF3.995017674656956
aF3.7849126515501794
aF4.009054502226304
aF3.8008316809488782
aF4.268854973929569
aF3.613344725548937
aF4.238220361655474
aF4.421422273876903
aF3.5698971001941744
aF4.195446898209772
aF4.08879775100443
aF4.480420475432814
aF3.9916894912294736
aF3.543731195179557
aF4.254771001143916
aF4.066067377962982
aF4.020251442661216
aF4.963502845739874
aF4.543760137791247
aF4.781997674370601
aF4.200163566470655
aF4.673410136895404
aF3.9103432507982845
aF4.267248092940621
aF3.587814007289017
aF4.3465314327427995
aF3.8735842186824705
aF4.237373291934343
aF4.401274579912988
aF4.25893031946015
aF3.9598831977516142
aF4.745049836158925
aF4.043239193254411
aF4.335670301952402
aF5.09653308603038
aF4.764712308357806
aF4.226010476084232
aF4.575826107854246
aF4.181267653881632
aF4.516792672167391
aF5.275276917429952
aF4.351498607719972
aF5.0000591097512705
aF4.349921291290768
aF4.058643892860159
aF3.738697078423936
aF3.8955775725883006
aF3.630049356626002
aF4.277603707771944
aF3.9001385459980042
aF4.19690469973015
aF4.584274915838021
aF4.3514628933748725
aF4.007023837758243
aF4.237233848191112
aF4.159898023823525
aF4.114411595162894
aF3.952672235728342
aF3.6405357865416095
aF4.158172845858263
aF4.559239102261433
aF3.524386849987997
aF3.240497866781086
aF3.8237254731876624
aF4.056379585536363
aF3.7815812955667916
aF4.065225733748243
aF4.292755981939011
aF4.287808051893721
aF4.04766039555207
aF3.9238382740025655
aF3.806366931563545
aF3.955176518279476
aF4.075769082021749
aF3.94690956962564
aF2.705280651959091
aF4.049425905243204
aF4.151455799311958
aF4.871687717125106
aF3.573491314385849
aF4.729754692242077
aF4.382732786593474
aF3.63145031978855
aF4.288705451216548
aF3.66807519361206
aF3.8164047777117873
aF4.371291506609177
aF4.448835679289554
aF4.979512449004533
aF4.256574139361614
aF4.204329685998138
aF3.2079051518620787
aF4.516801686245961
aF4.341182070891838
aF3.8444436725247804
aF3.209748764551809
aF4.371128685707147
aF4.748629823158712
aF3.6720147194532338
aF4.181958979642591
aF4.754674896856751
aF4.5197183055063865
aF4.049035778228165
aF3.686715017769204
aF4.3684416069761856
aF3.6809210879951237
aF4.265708251258025
aF4.488378740746762
aF3.9829458001861
aF4.124534730831053
aF3.7642388858568916
aF3.741059351271801
aF4.353592665001791
aF4.393839583325704
aF4.731459442368128
aF4.612004486193239
aF4.710178499628853
aF3.8469803363105575
aF3.4882577096876375
aF3.779636365806067
aF4.320426549799959
aF4.358296834580819
aF4.200075217367357
aF4.588840708669702
aF4.450539297563823
aF3.8193522972944196
aF4.40404042292468
aF3.9077165861474272
aF3.820595963145866
aF4.053794122678687
aF4.1054942360203786
aF4.132278203027363
aF4.2419149272090735
aF4.89823510742424
aF3.738327079018659
aF4.536435376200832
aF3.3892803578026784
aF3.599917123164557
aF4.511400436684877
aF3.4125328535678476
aF4.439708191148303
aF4.594187757758357
aF4.284488155220885
aF4.240939472613052
aF3.0862965601446994
aF4.322827564220693
aF3.6326427100546206
aF4.497826992622914
aF4.585204664106599
aF3.655962790942163
aF4.90099394043038
aF4.425029825786787
aF4.040116363955475
aF3.930202452192712
aF4.264988676853739
aF4.376123678350984
aF4.20817940281239
aF4.025163325578836
aF4.2837758228963825
aF4.289110943357363
aF4.323953157672994
aF4.517016341170643
aF4.123769692527423
aF4.156642578995702
aF3.4169714528864086
aF4.56095526840428
aF4.315595040743349
aF3.6997578011484484
aF4.181857603629721
aF4.195349395388649
aF4.364844576707227
aF3.8670644344092073
aF4.416665007294027
aF3.5807375591891764
aF4.057379891573094
aF4.199203344390187
aF4.635047194359734
aF4.665498423303659
aF4.720960997516226
aF4.9704389299706575
aF3.9821381722659113
aF4.600490461710406
aF4.447800192885439
aF4.287095543199366
aF3.8621247739378246
aF4.573523918966787
aF4.717214726324573
aF4.51031931818258
aF4.092302859476996
aF4.291155317179788
aF3.3098377059420487
aF4.8101959432885
aF4.330494802028088
aF4.017033718531684
aF4.796515657359231
aF4.19008810533325
aF4.110256283146272
aF4.04801693421852
aF3.917445251256068
aF4.637988627203852
aF3.8191924589016595
aF4.587887667572577
aF4.594189729229779
aF5.399623288100062
aF4.03208542944342
aF4.034319381005864
aF3.787418426784096
aF3.9429826063731355
aF3.7468220082777606
aF4.231003733115221
aF4.839907538873954
aF4.246135523569698
aF4.498503156564063
aF4.640405495101053
aF4.329040622821497
aF4.347129095592676
aF3.7378199615798122
aF4.444196772393511
aF4.718602424139246
aF3.7408395101346152
aF3.921094002908839
aF3.670489582924906
aF4.086875623556969
aF4.436353790723134
aF4.1800091922438
aF3.994151083559737
aF4.375894905795981
aF4.028329826653762
aF3.5613258661291676
aF4.373564654597036
aF3.537291765597277
aF4.203419024427853
aF4.000083142811344
aF3.9933617863541238
aF3.7058194152594637
aF5.105733509261855
aF3.8679446472516203
aF4.662709711875562
aF4.530027555784903
aF4.045051635778663
aF3.574505600436678
aF3.262608518818188
aF4.091095951441553
aF4.7404119021279625
aF4.418005152540937
aF3.060920106102566
aF4.267331991749634
aF4.741422387177938
aF3.832784283154484
aF4.47058549214054
aF3.9196679122003695
aF4.379769671992497
aF3.7448154083006444
aF3.894464244858463
aF4.152029599992321
aF3.9248890840305557
aF4.473421941199841
aF4.21497495524524
aF4.49873178774086
aF4.254329893172871
aF3.842429995079383
aF4.768855596252096
aF4.013088591240743
aF3.8449080435488825
aF3.694900318790727
aF4.127859214349121
aF3.7724587537795364
aF4.443482009165583
aF4.647376803981073
aF4.584733823598297
aF4.474642200518136
aF4.6099312353163295
aF4.412947269336405
aF4.619149048091868
aF4.616318158135222
aF3.7929045913721127
aF3.8819575581009134
aF3.6258403621623714
aF4.224540112885659
aF4.52200726210013
aF4.4683299754914785
aF3.9439389423560742
aF4.585002504531565
aF3.4250668995324034
aF3.6760536014502483
aF4.152331764584496
aF4.2683034642537425
aF4.155104628912829
aF3.9364926603193076
aF3.6188376993121523
aF4.253937358244442
aF4.331279076389318
aF4.582019044138908
aF3.776006705105586
aF3.335060467482646
aF3.615800815563413
aF4.138232535522208
aF4.4263368846873705
aF4.1905606085802365
aF4.1068058966094885
aF4.142922089750952
aF4.407331597280108
aF4.163309296689599
aF4.29643373879672
aF3.979323020887
aF4.011524870819656
aF4.2780011224145404
aF4.816915916949295
aF3.6889713214203717
aF4.176961256835583
aF4.565372333304387
aF4.801537050568801
aF4.003013461346615
aF4.2926079875053125
aF3.926646238367943
aF3.9154957209580217
aF3.851919039214392
aF3.6136192555185316
aF3.5175146896922187
aF4.01834059027018
aF3.738483567270721
aF4.550230892192605
aF3.864776904204409
aF3.8008089029728183
aF4.549288682033976
aF4.003948707872987
aF3.674800729877558
aF3.672829109030193
aF4.050712596331085
aF3.9691341932222657
aF4.479381103810881
aF4.164173425213732
aF3.99031278366862
aF4.38193561992413
aF4.193964183728825
aF4.112059295871395
aF3.8372025557612885
aF3.1714885147949845
aF4.502979191436559
aF4.266855694222775
aF4.640507278268042
aF4.073608425962436
aF3.528070661358149
aF4.818768030359113
aF4.917599835808504
aF3.4488289963979293
aF4.604466027389534
aF3.8735766424611584
aF3.681111292793002
aF4.036465870203933
aF3.6071196751009564
aF4.381936724858489
aF3.909174767514763
aF4.304897605376445
aF3.1444743173712206
aF4.322305501966519
aF3.6874878473398476
aF4.286352721394919
aF3.869139131166688
aF4.389179749622768
aF3.406272546005108
aF5.524629406689462
aF4.610296756463218
aF4.136432526344537
aF3.113772238358202
aF4.375170055753133
aF4.226148655291522
aF3.9146220158856218
aF4.620999289181405
aF3.782840915295597
aF3.4472501306098655
aF3.5477524878300573
aF4.499015518344576
aF3.328049615802187
aF3.267696192589176
aF3.8685839715079653
aF4.037395038954505
aF3.6073630956875626
aF4.4206205347823815
aF3.58491595723687
aF3.1392851109610027
aF3.8094611467667456
aF4.329425204231328
aF3.9082103468622273
aF4.329512804291091
aF4.043282171718131
aF4.556494857745788
aF3.86873608212034
aF3.28321443018706
aF3.9551017765798244
aF3.818200794689878
aF4.420680636099883
aF3.8236131601011225
aF4.303067873885386
aF4.101822910234738
aF3.9418472465620047
aF4.129245595056654
aF3.957035525410358
aF4.445722609479116
aF4.070723014773474
aF4.252847880751857
aF3.823422392790672
aF3.979582876573641
aF4.114694452430625
aF3.21633987024141
aF3.265504424250659
aF3.8867931752836853
aF4.093766160470855
aF3.297197180938947
aF4.2374889809356135
aF4.41802808149526
aF4.131978545976071
aF3.9264740573558514
aF4.201384377313281
aF4.351620930830989
aF4.57627815935905
aF3.482734936289659
aF4.456211753424535
aF4.382287448426173
aF4.403175891338941
aF3.912616584130709
aF3.4399948818929027
aF3.7915705943777147
aF4.415243901596327
aF4.1705849066320795
aF4.984466031504098
aF4.878960310058872
aF4.691849654073041
aF4.089009326778913
aF4.458995724077553
aF4.201607379992724
aF3.885717301111227
aF3.984453207377212
aF4.143336097463739
aF4.110684985294986
aF4.013286587801133
aF4.642871924671743
aF4.175989356336827
aF4.088391007510099
aF2.7873950170759025
aF4.101261297758929
aF4.013877305617699
aF3.5750132125116707
aF4.408921511692534
aF3.322030058526374
aF3.438355990478982
aF3.9165394535874833
aF3.579544316305241
aF2.995633553912396
aF3.519770194528882
aF3.2822548347801566
aF3.9820513417228143
aF3.488727388917583
aF3.5493314244975025
aF3.967719817031237
aF3.965100507847482
aF3.5221262075707713
aF3.6159654590855665
aF3.8354462768314606
aF4.7264725239728635
aF4.176294516872063
aF3.7016662983873707
aF3.622459885714721
aF3.6117676376780397
aF3.11693106959311
aF4.081765404003734
aF3.7967817692758947
aF4.2123586364483
aF4.0701416384201226
aF4.729296425544248
aF4.212557511871114
aF3.7545235812014743
aF4.301654397549955
aF4.342214099109253
aF4.141588896496392
aF3.425584694069701
aF3.8495832831820684
aF4.427809026211426
aF3.5060079488897684
aF3.718082077992728
aF3.580140157363238
aF4.069438733256925
aF4.174465220018714
aF3.866376881733229
aF4.217640272888583
aF3.072077786632574
aF4.1657573791384745
aF4.23536704121818
aF4.112315911650196
aF4.663413985653138
aF3.7992156981353333
aF3.88587182620551
aF3.9274802823034434
aF4.028213157034327
aF3.971966416129824
aF4.16142422389852
aF3.4001522655706395
aF3.833423809764361
aF3.8986565678229907
aF4.129862786248301
aF3.558919049884399
aF3.1571302100233645
aF4.210235251195503
aF3.7093101299216142
aF4.274462046519714
aF3.805050091038371
aF4.11445643398788
aF3.6285110615304186
aF4.5761881842395065
aF4.439017116498489
aF4.556177050818514
aF4.425712944513719
aF4.737059146941654
aF3.6950156186608716
aF3.692562627473726
aF4.126252520815066
aF3.5659432626454928
aF3.7126432788458046
aF3.8365107336629585
aF3.4879445704343217
aF4.264446912073298
aF3.6724850942987124
aF3.807625695765102
aF4.085191103196783
aF4.306379509237528
aF4.063824170701493
aF4.630023542442109
aF4.203653017528473
aF3.9864751232565894
aF4.300129288522106
aF3.7975262700231354
aF4.245334622582975
aF4.780733284994699
aF4.170239115998804
aF3.6154334438919924
aF3.853822373875192
aF4.132480577997734
aF4.667212400776
aF3.984753517281927
aF3.8591329209590883
aF3.4138186861428643
aF4.489484819746636
aF4.475381960058387
aF4.098864872766982
aF4.662238251755946
aF3.574198831941203
aF3.8107419016412982
aF3.780845996923945
aF3.889192717200854
aF4.552496716189404
aF4.192769348100752
aF4.496318729680206
aF3.8072758031258074
aF4.584679175925342
aF3.606887553682512
aF2.9476482345515693
aF4.75884018622051
aF4.091523194166125
aF3.4005005404534927
aF3.8321278551383555
aF3.5807183261642264
aF4.066536825428421
aF3.8531154325252124
aF4.332601950247738
aF4.200857909630838
aF4.294033640065353
aF3.9907980794360447
aF4.192524402147248
aF3.831352454016779
aF4.207421864450196
aF4.319521332845004
aF4.344468288520675
aF3.259534398366722
aF3.705552935043591
aF3.97186302527506
aF3.7785014427210895
aF3.778841614548085
aF4.466425378828637
aF4.382769609381952
aF3.991441840753488
aF4.39184743658924
aF4.15743734729285
aF4.688915482714815
aF4.264357607274411
aF4.375113957046587
aF3.562235835874052
aF4.902679975493615
aF3.8600068367749594
aF4.510104371520642
aF4.236262938938221
aF4.426651969059206
aF3.9209348616681297
aF4.151022249857585
aF4.325443922466175
aF3.99750641631911
aF4.381737611660103
aF3.4310213194117516
aF4.213219753155868
aF3.9092956874771305
aF3.9770278815740214
aF4.318853419545983
aF4.1095754320802245
aF4.777768898780986
aF4.226261551103375
aF4.677396810432533
aF4.198469258498003
aF4.605111205268699
aF5.202517777519645
aF3.7262895275526278
aF3.6042558351386993
aF4.312085660487207
aF4.247020865680585
aF3.9849199407997915
aF4.091961444669442
aF4.169929203836498
aF4.346764211780945
aF4.564693941102248
aF4.256728740663133
aF3.8652174617442556
aF3.896534295841623
aF3.959850357119336
aF4.5221233193763455
aF4.394449997079568
aF4.230051831408755
aF3.906967564109994
aF3.997624846150432
aF4.579026334545674
aF3.8970670032612373
aF3.737975434873036
aF4.259710068950086
aF4.076819103940961
aF3.873347808292934
aF4.476665689099899
aF4.861314748539646
aF4.301227317161674
aF4.074746556372842
aF4.252353952028716
aF4.363583410633352
aF3.4547025726482223
aF4.730128979042482
aF4.560253643459744
aF3.5439613713376446
aF4.214148132880185
a.