(lp0
F2.8791993275966776
aF2.809165311500003
aF2.9879910169454122
aF2.633047977279729
aF2.8806626233694956
aF3.3818479989248784
aF3.562954341178332
aF3.216258474123065
aF3.3644607399533597
aF2.9089201853081663
aF3.0432764908910057
aF2.6938231185707133
aF3.511888463398839
aF2.509051641338437
aF2.859707147737403
aF2.6433664151380976
aF3.455740566057763
aF3.6407878284034374
aF2.8972417386760636
aF2.2760663411462323
aF3.5371707980924483
aF2.545194667672697
aF2.7698993135318837
aF3.442027113362149
aF2.8881014354370027
aF2.536184006658269
aF3.505355116222445
aF2.9397790067910643
aF2.8360255657680455
aF2.6021978813233027
aF2.7200133268957325
aF3.252099294756868
aF3.0716088212938364
aF2.6957167076807336
aF3.440524646541178
aF3.1953799173275916
aF2.6027740428878205
aF3.052217449078345
aF2.756222341008768
aF3.093656433771527
aF3.072879017389247
aF2.786338844459035
aF3.2821584423137464
aF3.386000651542543
aF2.671663111272749
aF3.1053288280057862
aF3.1275543803023194
aF3.1776700611196014
aF3.174955128067457
aF3.132611488578911
aF3.015046538943579
aF2.7778289857498404
aF2.5019710998686673
aF3.1518964167024754
aF2.9574193790216716
aF3.1001890726753203
aF3.8707236680067814
aF3.136468893334217
aF2.930618856183722
aF3.3199339753602963
aF2.8127200909060823
aF3.0179193190731946
aF2.879018251951153
aF2.7895231969148258
aF3.1583507165151925
aF2.8487980452292274
aF3.1765201192380106
aF2.82331509066563
aF2.806925384588511
aF2.733828408534181
aF2.9912045489849985
aF2.6745294233079124
aF2.7708603199244095
aF2.9474627878116086
aF2.686638880003673
aF2.9114147122103473
aF4.257158320884844
aF2.867870090606206
aF3.275950889853663
aF2.8437557208955964
aF3.4773245257092227
aF3.1876632659830513
aF2.4973777261383545
aF3.0806098623277807
aF2.942473247437177
aF2.932330392458478
aF3.415994575942449
aF3.4646361461814066
aF2.9256926101871175
aF3.0198856353323102
aF3.027707545650377
aF3.319064336835017
aF3.1558597349793263
aF3.30347233240945
aF3.3982305003829203
aF3.2867735255754753
aF3.089289989271875
aF3.2157876407147086
aF2.8896176475633557
aF3.256429820179622
aF3.1669658729789125
aF2.995483074597145
aF3.8676382579692308
aF3.505053829541282
aF2.2638988067711603
aF3.086557172463077
aF3.501116000945907
aF2.9713567158797636
aF3.045831052180501
aF3.191090571484696
aF3.9502675891300987
aF2.521362899881262
aF2.901706327973533
aF3.189038082106937
aF3.6219970628601006
aF2.929139949885952
aF3.166770477949546
aF3.0134091749446235
aF3.433248753650498
aF2.7125403061762516
aF3.0550453442193763
aF3.1124948210957015
a.